target datalayout = "e-m:e-p270:32:32-p271:32:32-p272:64:64-i64:64-i128:128-f80:128-n8:16:32:64-S128"
target triple = "x86_64-unknown-linux-gnu"

%"struct.cvc5::internal::StatisticBaseValue.base" = type <{ ptr, i8 }>
%"struct.cvc5::internal::StatisticTimerValue::duration" = type { %"class.std::chrono::duration" }
%"class.std::chrono::duration" = type { i64 }
%"class.std::chrono::time_point" = type { %"class.std::chrono::duration" }
%"struct.cvc5::internal::StatisticTimerValue" = type <{ %"struct.cvc5::internal::StatisticBaseValue.base", [7 x i8], %"struct.cvc5::internal::StatisticTimerValue::duration", %"class.std::chrono::time_point", i8, [7 x i8] }>

; Function Attrs: mustprogress nounwind uwtable
define linkonce_odr hidden noundef i64 @_ZNKSt6chrono8durationIlSt5ratioILl1ELl1000000000EEE5countEv(ptr noundef nonnull align 8 dereferenceable(8) %this) #2 comdat align 2 {
entry:
  %this.addr = alloca ptr, align 8
  store ptr %this, ptr %this.addr, align 8
  %this1 = load ptr, ptr %this.addr, align 8
  %__r = getelementptr inbounds %"class.std::chrono::duration", ptr %this1, i32 0, i32 0
  %0 = load i64, ptr %__r, align 8
  ret i64 %0
}

; Function Attrs: mustprogress uwtable
define hidden noundef zeroext i1 @_ZNK4cvc58internal19StatisticTimerValue9isDefaultEv(ptr noundef nonnull align 8 dereferenceable(33) %this) unnamed_addr #0 align 2 {
entry:
  %this.addr = alloca ptr, align 8
  store ptr %this, ptr %this.addr, align 8
  %this1 = load ptr, ptr %this.addr, align 8
  %d_running = getelementptr inbounds %"struct.cvc5::internal::StatisticTimerValue", ptr %this1, i32 0, i32 4
  %0 = load i8, ptr %d_running, align 8
  %tobool = trunc i8 %0 to i1
  br i1 %tobool, label %land.end, label %land.rhs

land.rhs:                                         ; preds = %entry
  %d_duration = getelementptr inbounds %"struct.cvc5::internal::StatisticTimerValue", ptr %this1, i32 0, i32 2
  %call = call noundef i64 @_ZNKSt6chrono8durationIlSt5ratioILl1ELl1000000000EEE5countEv(ptr noundef nonnull align 8 dereferenceable(8) %d_duration)
  %cmp = icmp eq i64 %call, 0
  br label %land.end

land.end:                                         ; preds = %land.rhs, %entry
  %1 = phi i1 [ false, %entry ], [ %cmp, %land.rhs ]
  ret i1 %1
}