; Function Attrs: mustprogress nofree norecurse nosync nounwind willreturn memory(argmem: read) uwtable
define hidden noundef zeroext i1 @_ZNK4cvc58internal19StatisticTimerValue9isDefaultEv(ptr nocapture noundef nonnull readonly align 8 dereferenceable(33) %this) unnamed_addr #6 align 2 {
entry:
  %d_running = getelementptr inbounds i8, ptr %this, i64 32
  %0 = load i8, ptr %d_running, align 8
  %1 = and i8 %0, 1
  %tobool.not = icmp eq i8 %1, 0
  %d_duration = getelementptr inbounds i8, ptr %this, i64 16
  %2 = load i64, ptr %d_duration, align 8
  %cmp = icmp eq i64 %2, 0
  %3 = select i1 %tobool.not, i1 %cmp, i1 false
  ret i1 %3
}